target datalayout = "e-m:e-p270:32:32-p271:32:32-p272:64:64-i64:64-i128:128-f80:128-n8:16:32:64-S128"
target triple = "x86_64-pc-linux-gnu"

%"class.std::filesystem::__cxx11::path" = type { %"class.std::__cxx11::basic_string", %"struct.std::filesystem::__cxx11::path::_List" }
%"class.std::__cxx11::basic_string" = type { %"struct.std::__cxx11::basic_string<char>::_Alloc_hider", i64, %union.anon }
%"struct.std::__cxx11::basic_string<char>::_Alloc_hider" = type { ptr }
%union.anon = type { i64, [8 x i8] }
%"struct.std::filesystem::__cxx11::path::_List" = type { %"class.std::unique_ptr" }
%"class.std::unique_ptr" = type { %"struct.std::__uniq_ptr_data" }
%"struct.std::__uniq_ptr_data" = type { %"class.std::__uniq_ptr_impl" }
%"class.std::__uniq_ptr_impl" = type { %"class.std::tuple" }
%"class.std::tuple" = type { %"struct.std::_Tuple_impl" }
%"struct.std::_Tuple_impl" = type { %"struct.std::_Head_base.1" }
%"struct.std::_Head_base.1" = type { ptr }

@.str = private unnamed_addr constant [125 x i8] c"generated/home/dtcxzyw/WorkSpace/Projects/compilers/llvm-opt-benchmark/bench/gromacs/gromacs/src/gromacs/utility/smalloc.cpp\00", align 1
@.str.4 = private unnamed_addr constant [86 x i8] c"Cannot allocate aligned memory with alignment of zero!\0A(called from file %s, line %d)\00", align 1
@.str.5 = private unnamed_addr constant [89 x i8] c"Cannot allocate aligned memory with alignment > %zu bytes\0A(called from file %s, line %d)\00", align 1
@.str.6 = private unnamed_addr constant [109 x i8] c"Not enough memory. Failed to allocate %zu aligned elements of size %zu for %s\0A(called from file %s, line %d)\00", align 1

; Function Attrs: mustprogress uwtable
define noundef ptr @_Z19save_malloc_alignedPKcS0_immm(ptr noundef %0, ptr noundef %1, i32 noundef %2, i64 noundef %3, i64 noundef %4, i64 noundef %5) #0 personality ptr @__gxx_personality_v0 {
  %7 = alloca ptr, align 8
  %8 = alloca ptr, align 8
  %9 = alloca i32, align 4
  %10 = alloca i64, align 8
  %11 = alloca i64, align 8
  %12 = alloca i64, align 8
  %13 = alloca ptr, align 8
  %14 = alloca %"class.std::filesystem::__cxx11::path", align 8
  %15 = alloca ptr, align 8
  %16 = alloca i32, align 4
  %17 = alloca i64, align 8
  %18 = alloca %"class.std::filesystem::__cxx11::path", align 8
  %19 = alloca %"class.std::filesystem::__cxx11::path", align 8
  store ptr %0, ptr %7, align 8
  store ptr %1, ptr %8, align 8
  store i32 %2, ptr %9, align 4
  store i64 %3, ptr %10, align 8
  store i64 %4, ptr %11, align 8
  store i64 %5, ptr %12, align 8
  store ptr null, ptr %13, align 8
  %20 = load i64, ptr %12, align 8
  %21 = icmp eq i64 %20, 0
  br i1 %21, label %22, label %32

22:                                               ; preds = %6
  %23 = call ptr @__errno_location() #14
  %24 = load i32, ptr %23, align 4
  call void @_ZNSt10filesystem7__cxx114pathC2IA125_cS1_EERKT_NS1_6formatE(ptr noundef nonnull align 8 dereferenceable(40) %14, ptr noundef nonnull align 1 dereferenceable(125) @.str, i8 noundef zeroext 2)
  %25 = load ptr, ptr %8, align 8
  %26 = load i32, ptr %9, align 4
  invoke void (i32, ptr, i32, ptr, ...) @_Z9gmx_fataliRKNSt10filesystem7__cxx114pathEiPKcz(i32 noundef %24, ptr noundef nonnull align 8 dereferenceable(40) %14, i32 noundef 215, ptr noundef @.str.4, ptr noundef %25, i32 noundef %26) #15
          to label %27 unwind label %28

27:                                               ; preds = %22
  unreachable

28:                                               ; preds = %22
  %29 = landingpad { ptr, i32 }
          cleanup
  %30 = extractvalue { ptr, i32 } %29, 0
  store ptr %30, ptr %15, align 8
  %31 = extractvalue { ptr, i32 } %29, 1
  store i32 %31, ptr %16, align 4
  call void @_ZNSt10filesystem7__cxx114pathD2Ev(ptr noundef nonnull align 8 dereferenceable(40) %14) #16
  br label %78

32:                                               ; preds = %6
  %33 = call noundef i64 @_ZN3gmx23AlignedAllocationPolicy9alignmentEv()
  store i64 %33, ptr %17, align 8
  %34 = load i64, ptr %12, align 8
  %35 = load i64, ptr %17, align 8
  %36 = icmp ugt i64 %34, %35
  br i1 %36, label %37, label %48

37:                                               ; preds = %32
  %38 = call ptr @__errno_location() #14
  %39 = load i32, ptr %38, align 4
  call void @_ZNSt10filesystem7__cxx114pathC2IA125_cS1_EERKT_NS1_6formatE(ptr noundef nonnull align 8 dereferenceable(40) %18, ptr noundef nonnull align 1 dereferenceable(125) @.str, i8 noundef zeroext 2)
  %40 = load i64, ptr %17, align 8
  %41 = load ptr, ptr %8, align 8
  %42 = load i32, ptr %9, align 4
  invoke void (i32, ptr, i32, ptr, ...) @_Z9gmx_fataliRKNSt10filesystem7__cxx114pathEiPKcz(i32 noundef %39, ptr noundef nonnull align 8 dereferenceable(40) %18, i32 noundef 227, ptr noundef @.str.5, i64 noundef %40, ptr noundef %41, i32 noundef %42) #15
          to label %43 unwind label %44

43:                                               ; preds = %37
  unreachable

44:                                               ; preds = %37
  %45 = landingpad { ptr, i32 }
          cleanup
  %46 = extractvalue { ptr, i32 } %45, 0
  store ptr %46, ptr %15, align 8
  %47 = extractvalue { ptr, i32 } %45, 1
  store i32 %47, ptr %16, align 4
  call void @_ZNSt10filesystem7__cxx114pathD2Ev(ptr noundef nonnull align 8 dereferenceable(40) %18) #16
  br label %78

48:                                               ; preds = %32
  %49 = load i64, ptr %10, align 8
  %50 = icmp eq i64 %49, 0
  br i1 %50, label %54, label %51

51:                                               ; preds = %48
  %52 = load i64, ptr %11, align 8
  %53 = icmp eq i64 %52, 0
  br i1 %53, label %54, label %55

54:                                               ; preds = %51, %48
  store ptr null, ptr %13, align 8
  br label %76

55:                                               ; preds = %51
  %56 = load i64, ptr %10, align 8
  %57 = load i64, ptr %11, align 8
  %58 = mul i64 %56, %57
  %59 = call noundef ptr @_ZN3gmx23AlignedAllocationPolicy6mallocEm(i64 noundef %58)
  store ptr %59, ptr %13, align 8
  %60 = load ptr, ptr %13, align 8
  %61 = icmp eq ptr %60, null
  br i1 %61, label %62, label %75

62:                                               ; preds = %55
  %63 = call ptr @__errno_location() #14
  %64 = load i32, ptr %63, align 4
  call void @_ZNSt10filesystem7__cxx114pathC2IA125_cS1_EERKT_NS1_6formatE(ptr noundef nonnull align 8 dereferenceable(40) %19, ptr noundef nonnull align 1 dereferenceable(125) @.str, i8 noundef zeroext 2)
  %65 = load i64, ptr %10, align 8
  %66 = load i64, ptr %11, align 8
  %67 = load ptr, ptr %7, align 8
  %68 = load ptr, ptr %8, align 8
  %69 = load i32, ptr %9, align 4
  invoke void (i32, ptr, i32, ptr, ...) @_Z9gmx_fataliRKNSt10filesystem7__cxx114pathEiPKcz(i32 noundef %64, ptr noundef nonnull align 8 dereferenceable(40) %19, i32 noundef 261, ptr noundef @.str.6, i64 noundef %65, i64 noundef %66, ptr noundef %67, ptr noundef %68, i32 noundef %69) #15
          to label %70 unwind label %71

70:                                               ; preds = %62
  unreachable

71:                                               ; preds = %62
  %72 = landingpad { ptr, i32 }
          cleanup
  %73 = extractvalue { ptr, i32 } %72, 0
  store ptr %73, ptr %15, align 8
  %74 = extractvalue { ptr, i32 } %72, 1
  store i32 %74, ptr %16, align 4
  call void @_ZNSt10filesystem7__cxx114pathD2Ev(ptr noundef nonnull align 8 dereferenceable(40) %19) #16
  br label %78

75:                                               ; preds = %55
  br label %76

76:                                               ; preds = %75, %54
  %77 = load ptr, ptr %13, align 8
  ret ptr %77

78:                                               ; preds = %71, %44, %28
  %79 = load ptr, ptr %15, align 8
  %80 = load i32, ptr %16, align 4
  %81 = insertvalue { ptr, i32 } poison, ptr %79, 0
  %82 = insertvalue { ptr, i32 } %81, i32 %80, 1
  resume { ptr, i32 } %82
}