; Function Attrs: mustprogress uwtable
define noundef ptr @_Z19save_malloc_alignedPKcS0_immm(ptr noundef %0, ptr noundef %1, i32 noundef %2, i64 noundef %3, i64 noundef %4, i64 noundef %5) local_unnamed_addr #0 personality ptr @__gxx_personality_v0 {
  %7 = alloca %"class.std::filesystem::__cxx11::path", align 8
  %8 = alloca %"class.std::filesystem::__cxx11::path", align 8
  %9 = alloca %"class.std::filesystem::__cxx11::path", align 8
  %10 = icmp eq i64 %5, 0
  br i1 %10, label %11, label %17

11:                                               ; preds = %6
  %12 = tail call ptr @__errno_location() #16
  %13 = load i32, ptr %12, align 4
  call void @_ZNSt10filesystem7__cxx114pathC2IA125_cS1_EERKT_NS1_6formatE(ptr noundef nonnull align 8 dereferenceable(40) %7, ptr noundef nonnull align 1 dereferenceable(125) @.str, i8 noundef zeroext 2)
  invoke void (i32, ptr, i32, ptr, ...) @_Z9gmx_fataliRKNSt10filesystem7__cxx114pathEiPKcz(i32 noundef %13, ptr noundef nonnull align 8 dereferenceable(40) %7, i32 noundef 215, ptr noundef nonnull @.str.4, ptr noundef %1, i32 noundef %2) #17
          to label %14 unwind label %15

14:                                               ; preds = %11
  unreachable

15:                                               ; preds = %11
  %16 = landingpad { ptr, i32 }
          cleanup
  br label %40

17:                                               ; preds = %6
  %18 = tail call noundef i64 @_ZN3gmx23AlignedAllocationPolicy9alignmentEv()
  %19 = icmp ult i64 %18, %5
  br i1 %19, label %20, label %26

20:                                               ; preds = %17
  %21 = tail call ptr @__errno_location() #16
  %22 = load i32, ptr %21, align 4
  call void @_ZNSt10filesystem7__cxx114pathC2IA125_cS1_EERKT_NS1_6formatE(ptr noundef nonnull align 8 dereferenceable(40) %8, ptr noundef nonnull align 1 dereferenceable(125) @.str, i8 noundef zeroext 2)
  invoke void (i32, ptr, i32, ptr, ...) @_Z9gmx_fataliRKNSt10filesystem7__cxx114pathEiPKcz(i32 noundef %22, ptr noundef nonnull align 8 dereferenceable(40) %8, i32 noundef 227, ptr noundef nonnull @.str.5, i64 noundef %18, ptr noundef %1, i32 noundef %2) #17
          to label %23 unwind label %24

23:                                               ; preds = %20
  unreachable

24:                                               ; preds = %20
  %25 = landingpad { ptr, i32 }
          cleanup
  br label %40

26:                                               ; preds = %17
  %27 = icmp eq i64 %3, 0
  %28 = icmp eq i64 %4, 0
  %or.cond = or i1 %27, %28
  br i1 %or.cond, label %39, label %29

29:                                               ; preds = %26
  %30 = mul i64 %4, %3
  %31 = tail call noundef ptr @_ZN3gmx23AlignedAllocationPolicy6mallocEm(i64 noundef %30)
  %32 = icmp eq ptr %31, null
  br i1 %32, label %33, label %39

33:                                               ; preds = %29
  %34 = tail call ptr @__errno_location() #16
  %35 = load i32, ptr %34, align 4
  call void @_ZNSt10filesystem7__cxx114pathC2IA125_cS1_EERKT_NS1_6formatE(ptr noundef nonnull align 8 dereferenceable(40) %9, ptr noundef nonnull align 1 dereferenceable(125) @.str, i8 noundef zeroext 2)
  invoke void (i32, ptr, i32, ptr, ...) @_Z9gmx_fataliRKNSt10filesystem7__cxx114pathEiPKcz(i32 noundef %35, ptr noundef nonnull align 8 dereferenceable(40) %9, i32 noundef 261, ptr noundef nonnull @.str.6, i64 noundef %3, i64 noundef %4, ptr noundef %0, ptr noundef %1, i32 noundef %2) #17
          to label %36 unwind label %37

36:                                               ; preds = %33
  unreachable

37:                                               ; preds = %33
  %38 = landingpad { ptr, i32 }
          cleanup
  br label %40

39:                                               ; preds = %26, %29
  %.0 = phi ptr [ %31, %29 ], [ null, %26 ]
  ret ptr %.0

40:                                               ; preds = %37, %24, %15
  %.sink = phi ptr [ %9, %37 ], [ %8, %24 ], [ %7, %15 ]
  %.pn = phi { ptr, i32 } [ %38, %37 ], [ %25, %24 ], [ %16, %15 ]
  call void @_ZNSt10filesystem7__cxx114pathD2Ev(ptr noundef nonnull align 8 dereferenceable(40) %.sink) #18
  resume { ptr, i32 } %.pn
}